target datalayout = "e-m:e-p270:32:32-p271:32:32-p272:64:64-i64:64-i128:128-f80:128-n8:16:32:64-S128"
target triple = "x86_64-pc-linux-gnu"

%struct.ColorContext = type { ptr }
%struct.SwsFilterDescriptor = type { ptr, ptr, i32, ptr, ptr }
%struct.SwsSlice = type { i32, i32, i32, i32, i32, i32, [4 x %struct.SwsPlane] }
%struct.SwsPlane = type { i32, i32, i32, ptr, ptr }
%struct.SwsInternal = type { %struct.SwsContext, ptr, ptr, ptr, ptr, i32, [2 x ptr], i32, i32, ptr, i32, i32, i32, i32, i32, i32, i32, i32, i32, i32, i32, i32, i32, i32, i32, i32, i32, i32, ptr, ptr, %struct.RangeList, [3 x ptr], [2 x [4 x i32]], [2 x [4 x ptr]], i32, double, i32, ptr, ptr, i32, [2 x i32], i32, ptr, ptr, [256 x i32], [256 x i32], [256 x float], i32, i32, ptr, i32, ptr, ptr, ptr, ptr, ptr, ptr, ptr, ptr, i32, i32, i32, i32, i32, i32, ptr, ptr, i32, i32, i32, ptr, [8 x i8], [1280 x i32], [1280 x ptr], [1280 x ptr], [1280 x ptr], [176 x i32], [4 x ptr], i32, i32, i32, [4 x i32], [4 x i32], i32, i32, i32, i32, i32, i32, i32, i32, i32, i32, i64, i64, i64, i64, i64, i64, i64, i64, i64, i64, i64, [1024 x i32], [1024 x i32], i32, i64, i64, i64, i64, i64, [1024 x i32], i64, i64, [8 x i16], [8 x i32], ptr, ptr, i32, ptr, ptr, ptr, ptr, [3 x [4 x i16]], [3 x [4 x i16]], ptr, ptr, ptr, ptr, ptr, ptr, ptr, ptr, ptr, ptr, ptr, ptr, ptr, ptr, ptr, ptr, ptr, ptr, ptr, ptr, i32, i32, i64, i64, i32, ptr, i32, ptr, i32, i32, i32, i32, i32, ptr }
%struct.SwsContext = type { ptr, ptr, i32, [2 x double], i32, i32, i32, i32, i32, i32, i32, i32, i32, i32, i32, i32, i32, i32, i32, i32, i32 }
%struct.RangeList = type { ptr, i32, i32 }

; Function Attrs: nounwind uwtable
define internal i32 @chr_convert(ptr noundef %0, ptr noundef %1, i32 noundef %2, i32 noundef %3) #0 {
  %5 = alloca ptr, align 8
  %6 = alloca ptr, align 8
  %7 = alloca i32, align 4
  %8 = alloca i32, align 4
  %9 = alloca i32, align 4
  %10 = alloca ptr, align 8
  %11 = alloca ptr, align 8
  %12 = alloca i32, align 4
  %13 = alloca i32, align 4
  %14 = alloca i32, align 4
  %15 = alloca [4 x ptr], align 16
  %16 = alloca ptr, align 8
  %17 = alloca ptr, align 8
  store ptr %0, ptr %5, align 8, !tbaa !33
  store ptr %1, ptr %6, align 8, !tbaa !4
  store i32 %2, ptr %7, align 4, !tbaa !26
  store i32 %3, ptr %8, align 4, !tbaa !26
  call void @llvm.lifetime.start.p0(i64 4, ptr %9) #6
  %18 = load ptr, ptr %6, align 8, !tbaa !4
  %19 = getelementptr inbounds nuw %struct.SwsFilterDescriptor, ptr %18, i32 0, i32 0
  %20 = load ptr, ptr %19, align 8, !tbaa !23
  %21 = getelementptr inbounds nuw %struct.SwsSlice, ptr %20, i32 0, i32 1
  %22 = load i32, ptr %21, align 4, !tbaa !78
  %23 = call i1 @llvm.is.constant.i32(i32 %22)
  br i1 %23, label %38, label %24

24:                                               ; preds = %4
  %25 = load ptr, ptr %6, align 8, !tbaa !4
  %26 = getelementptr inbounds nuw %struct.SwsFilterDescriptor, ptr %25, i32 0, i32 0
  %27 = load ptr, ptr %26, align 8, !tbaa !23
  %28 = getelementptr inbounds nuw %struct.SwsSlice, ptr %27, i32 0, i32 0
  %29 = load i32, ptr %28, align 8, !tbaa !35
  %30 = sub nsw i32 0, %29
  %31 = load ptr, ptr %6, align 8, !tbaa !4
  %32 = getelementptr inbounds nuw %struct.SwsFilterDescriptor, ptr %31, i32 0, i32 0
  %33 = load ptr, ptr %32, align 8, !tbaa !23
  %34 = getelementptr inbounds nuw %struct.SwsSlice, ptr %33, i32 0, i32 1
  %35 = load i32, ptr %34, align 4, !tbaa !78
  %36 = ashr i32 %30, %35
  %37 = sub nsw i32 0, %36
  br label %58

38:                                               ; preds = %4
  %39 = load ptr, ptr %6, align 8, !tbaa !4
  %40 = getelementptr inbounds nuw %struct.SwsFilterDescriptor, ptr %39, i32 0, i32 0
  %41 = load ptr, ptr %40, align 8, !tbaa !23
  %42 = getelementptr inbounds nuw %struct.SwsSlice, ptr %41, i32 0, i32 0
  %43 = load i32, ptr %42, align 8, !tbaa !35
  %44 = load ptr, ptr %6, align 8, !tbaa !4
  %45 = getelementptr inbounds nuw %struct.SwsFilterDescriptor, ptr %44, i32 0, i32 0
  %46 = load ptr, ptr %45, align 8, !tbaa !23
  %47 = getelementptr inbounds nuw %struct.SwsSlice, ptr %46, i32 0, i32 1
  %48 = load i32, ptr %47, align 4, !tbaa !78
  %49 = shl i32 1, %48
  %50 = add nsw i32 %43, %49
  %51 = sub nsw i32 %50, 1
  %52 = load ptr, ptr %6, align 8, !tbaa !4
  %53 = getelementptr inbounds nuw %struct.SwsFilterDescriptor, ptr %52, i32 0, i32 0
  %54 = load ptr, ptr %53, align 8, !tbaa !23
  %55 = getelementptr inbounds nuw %struct.SwsSlice, ptr %54, i32 0, i32 1
  %56 = load i32, ptr %55, align 4, !tbaa !78
  %57 = ashr i32 %51, %56
  br label %58

58:                                               ; preds = %38, %24
  %59 = phi i32 [ %37, %24 ], [ %57, %38 ]
  store i32 %59, ptr %9, align 4, !tbaa !26
  call void @llvm.lifetime.start.p0(i64 8, ptr %10) #6
  %60 = load ptr, ptr %6, align 8, !tbaa !4
  %61 = getelementptr inbounds nuw %struct.SwsFilterDescriptor, ptr %60, i32 0, i32 3
  %62 = load ptr, ptr %61, align 8, !tbaa !17
  store ptr %62, ptr %10, align 8, !tbaa !13
  call void @llvm.lifetime.start.p0(i64 8, ptr %11) #6
  %63 = load ptr, ptr %10, align 8, !tbaa !13
  %64 = getelementptr inbounds nuw %struct.ColorContext, ptr %63, i32 0, i32 0
  %65 = load ptr, ptr %64, align 8, !tbaa !15
  store ptr %65, ptr %11, align 8, !tbaa !11
  call void @llvm.lifetime.start.p0(i64 4, ptr %12) #6
  %66 = load i32, ptr %7, align 4, !tbaa !26
  %67 = load ptr, ptr %6, align 8, !tbaa !4
  %68 = getelementptr inbounds nuw %struct.SwsFilterDescriptor, ptr %67, i32 0, i32 0
  %69 = load ptr, ptr %68, align 8, !tbaa !23
  %70 = getelementptr inbounds nuw %struct.SwsSlice, ptr %69, i32 0, i32 6
  %71 = getelementptr inbounds [4 x %struct.SwsPlane], ptr %70, i64 0, i64 0
  %72 = getelementptr inbounds nuw %struct.SwsPlane, ptr %71, i32 0, i32 1
  %73 = load i32, ptr %72, align 4, !tbaa !36
  %74 = load ptr, ptr %6, align 8, !tbaa !4
  %75 = getelementptr inbounds nuw %struct.SwsFilterDescriptor, ptr %74, i32 0, i32 0
  %76 = load ptr, ptr %75, align 8, !tbaa !23
  %77 = getelementptr inbounds nuw %struct.SwsSlice, ptr %76, i32 0, i32 2
  %78 = load i32, ptr %77, align 8, !tbaa !41
  %79 = ashr i32 %73, %78
  %80 = sub nsw i32 %66, %79
  %81 = load ptr, ptr %6, align 8, !tbaa !4
  %82 = getelementptr inbounds nuw %struct.SwsFilterDescriptor, ptr %81, i32 0, i32 0
  %83 = load ptr, ptr %82, align 8, !tbaa !23
  %84 = getelementptr inbounds nuw %struct.SwsSlice, ptr %83, i32 0, i32 2
  %85 = load i32, ptr %84, align 8, !tbaa !41
  %86 = shl i32 %80, %85
  store i32 %86, ptr %12, align 4, !tbaa !26
  call void @llvm.lifetime.start.p0(i64 4, ptr %13) #6
  %87 = load i32, ptr %7, align 4, !tbaa !26
  %88 = load ptr, ptr %6, align 8, !tbaa !4
  %89 = getelementptr inbounds nuw %struct.SwsFilterDescriptor, ptr %88, i32 0, i32 0
  %90 = load ptr, ptr %89, align 8, !tbaa !23
  %91 = getelementptr inbounds nuw %struct.SwsSlice, ptr %90, i32 0, i32 6
  %92 = getelementptr inbounds [4 x %struct.SwsPlane], ptr %91, i64 0, i64 1
  %93 = getelementptr inbounds nuw %struct.SwsPlane, ptr %92, i32 0, i32 1
  %94 = load i32, ptr %93, align 4, !tbaa !36
  %95 = sub nsw i32 %87, %94
  store i32 %95, ptr %13, align 4, !tbaa !26
  call void @llvm.lifetime.start.p0(i64 4, ptr %14) #6
  %96 = load i32, ptr %7, align 4, !tbaa !26
  %97 = load ptr, ptr %6, align 8, !tbaa !4
  %98 = getelementptr inbounds nuw %struct.SwsFilterDescriptor, ptr %97, i32 0, i32 1
  %99 = load ptr, ptr %98, align 8, !tbaa !24
  %100 = getelementptr inbounds nuw %struct.SwsSlice, ptr %99, i32 0, i32 6
  %101 = getelementptr inbounds [4 x %struct.SwsPlane], ptr %100, i64 0, i64 1
  %102 = getelementptr inbounds nuw %struct.SwsPlane, ptr %101, i32 0, i32 1
  store i32 %96, ptr %102, align 4, !tbaa !36
  %103 = load i32, ptr %8, align 4, !tbaa !26
  %104 = load ptr, ptr %6, align 8, !tbaa !4
  %105 = getelementptr inbounds nuw %struct.SwsFilterDescriptor, ptr %104, i32 0, i32 1
  %106 = load ptr, ptr %105, align 8, !tbaa !24
  %107 = getelementptr inbounds nuw %struct.SwsSlice, ptr %106, i32 0, i32 6
  %108 = getelementptr inbounds [4 x %struct.SwsPlane], ptr %107, i64 0, i64 1
  %109 = getelementptr inbounds nuw %struct.SwsPlane, ptr %108, i32 0, i32 2
  store i32 %103, ptr %109, align 8, !tbaa !40
  %110 = load i32, ptr %7, align 4, !tbaa !26
  %111 = load ptr, ptr %6, align 8, !tbaa !4
  %112 = getelementptr inbounds nuw %struct.SwsFilterDescriptor, ptr %111, i32 0, i32 1
  %113 = load ptr, ptr %112, align 8, !tbaa !24
  %114 = getelementptr inbounds nuw %struct.SwsSlice, ptr %113, i32 0, i32 6
  %115 = getelementptr inbounds [4 x %struct.SwsPlane], ptr %114, i64 0, i64 2
  %116 = getelementptr inbounds nuw %struct.SwsPlane, ptr %115, i32 0, i32 1
  store i32 %110, ptr %116, align 4, !tbaa !36
  %117 = load i32, ptr %8, align 4, !tbaa !26
  %118 = load ptr, ptr %6, align 8, !tbaa !4
  %119 = getelementptr inbounds nuw %struct.SwsFilterDescriptor, ptr %118, i32 0, i32 1
  %120 = load ptr, ptr %119, align 8, !tbaa !24
  %121 = getelementptr inbounds nuw %struct.SwsSlice, ptr %120, i32 0, i32 6
  %122 = getelementptr inbounds [4 x %struct.SwsPlane], ptr %121, i64 0, i64 2
  %123 = getelementptr inbounds nuw %struct.SwsPlane, ptr %122, i32 0, i32 2
  store i32 %117, ptr %123, align 8, !tbaa !40
  store i32 0, ptr %14, align 4, !tbaa !26
  br label %124

124:                                              ; preds = %248, %58
  %125 = load i32, ptr %14, align 4, !tbaa !26
  %126 = load i32, ptr %8, align 4, !tbaa !26
  %127 = icmp slt i32 %125, %126
  br i1 %127, label %128, label %251

128:                                              ; preds = %124
  call void @llvm.lifetime.start.p0(i64 32, ptr %15) #6
  %129 = load ptr, ptr %6, align 8, !tbaa !4
  %130 = getelementptr inbounds nuw %struct.SwsFilterDescriptor, ptr %129, i32 0, i32 0
  %131 = load ptr, ptr %130, align 8, !tbaa !23
  %132 = getelementptr inbounds nuw %struct.SwsSlice, ptr %131, i32 0, i32 6
  %133 = getelementptr inbounds [4 x %struct.SwsPlane], ptr %132, i64 0, i64 0
  %134 = getelementptr inbounds nuw %struct.SwsPlane, ptr %133, i32 0, i32 3
  %135 = load ptr, ptr %134, align 8, !tbaa !42
  %136 = load i32, ptr %12, align 4, !tbaa !26
  %137 = load i32, ptr %14, align 4, !tbaa !26
  %138 = add nsw i32 %136, %137
  %139 = sext i32 %138 to i64
  %140 = getelementptr inbounds ptr, ptr %135, i64 %139
  %141 = load ptr, ptr %140, align 8, !tbaa !43
  store ptr %141, ptr %15, align 8, !tbaa !43
  %142 = getelementptr inbounds ptr, ptr %15, i64 1
  %143 = load ptr, ptr %6, align 8, !tbaa !4
  %144 = getelementptr inbounds nuw %struct.SwsFilterDescriptor, ptr %143, i32 0, i32 0
  %145 = load ptr, ptr %144, align 8, !tbaa !23
  %146 = getelementptr inbounds nuw %struct.SwsSlice, ptr %145, i32 0, i32 6
  %147 = getelementptr inbounds [4 x %struct.SwsPlane], ptr %146, i64 0, i64 1
  %148 = getelementptr inbounds nuw %struct.SwsPlane, ptr %147, i32 0, i32 3
  %149 = load ptr, ptr %148, align 8, !tbaa !42
  %150 = load i32, ptr %13, align 4, !tbaa !26
  %151 = load i32, ptr %14, align 4, !tbaa !26
  %152 = add nsw i32 %150, %151
  %153 = sext i32 %152 to i64
  %154 = getelementptr inbounds ptr, ptr %149, i64 %153
  %155 = load ptr, ptr %154, align 8, !tbaa !43
  store ptr %155, ptr %142, align 8, !tbaa !43
  %156 = getelementptr inbounds ptr, ptr %15, i64 2
  %157 = load ptr, ptr %6, align 8, !tbaa !4
  %158 = getelementptr inbounds nuw %struct.SwsFilterDescriptor, ptr %157, i32 0, i32 0
  %159 = load ptr, ptr %158, align 8, !tbaa !23
  %160 = getelementptr inbounds nuw %struct.SwsSlice, ptr %159, i32 0, i32 6
  %161 = getelementptr inbounds [4 x %struct.SwsPlane], ptr %160, i64 0, i64 2
  %162 = getelementptr inbounds nuw %struct.SwsPlane, ptr %161, i32 0, i32 3
  %163 = load ptr, ptr %162, align 8, !tbaa !42
  %164 = load i32, ptr %13, align 4, !tbaa !26
  %165 = load i32, ptr %14, align 4, !tbaa !26
  %166 = add nsw i32 %164, %165
  %167 = sext i32 %166 to i64
  %168 = getelementptr inbounds ptr, ptr %163, i64 %167
  %169 = load ptr, ptr %168, align 8, !tbaa !43
  store ptr %169, ptr %156, align 8, !tbaa !43
  %170 = getelementptr inbounds ptr, ptr %15, i64 3
  %171 = load ptr, ptr %6, align 8, !tbaa !4
  %172 = getelementptr inbounds nuw %struct.SwsFilterDescriptor, ptr %171, i32 0, i32 0
  %173 = load ptr, ptr %172, align 8, !tbaa !23
  %174 = getelementptr inbounds nuw %struct.SwsSlice, ptr %173, i32 0, i32 6
  %175 = getelementptr inbounds [4 x %struct.SwsPlane], ptr %174, i64 0, i64 3
  %176 = getelementptr inbounds nuw %struct.SwsPlane, ptr %175, i32 0, i32 3
  %177 = load ptr, ptr %176, align 8, !tbaa !42
  %178 = load i32, ptr %12, align 4, !tbaa !26
  %179 = load i32, ptr %14, align 4, !tbaa !26
  %180 = add nsw i32 %178, %179
  %181 = sext i32 %180 to i64
  %182 = getelementptr inbounds ptr, ptr %177, i64 %181
  %183 = load ptr, ptr %182, align 8, !tbaa !43
  store ptr %183, ptr %170, align 8, !tbaa !43
  call void @llvm.lifetime.start.p0(i64 8, ptr %16) #6
  %184 = load ptr, ptr %6, align 8, !tbaa !4
  %185 = getelementptr inbounds nuw %struct.SwsFilterDescriptor, ptr %184, i32 0, i32 1
  %186 = load ptr, ptr %185, align 8, !tbaa !24
  %187 = getelementptr inbounds nuw %struct.SwsSlice, ptr %186, i32 0, i32 6
  %188 = getelementptr inbounds [4 x %struct.SwsPlane], ptr %187, i64 0, i64 1
  %189 = getelementptr inbounds nuw %struct.SwsPlane, ptr %188, i32 0, i32 3
  %190 = load ptr, ptr %189, align 8, !tbaa !42
  %191 = load i32, ptr %14, align 4, !tbaa !26
  %192 = sext i32 %191 to i64
  %193 = getelementptr inbounds ptr, ptr %190, i64 %192
  %194 = load ptr, ptr %193, align 8, !tbaa !43
  store ptr %194, ptr %16, align 8, !tbaa !43
  call void @llvm.lifetime.start.p0(i64 8, ptr %17) #6
  %195 = load ptr, ptr %6, align 8, !tbaa !4
  %196 = getelementptr inbounds nuw %struct.SwsFilterDescriptor, ptr %195, i32 0, i32 1
  %197 = load ptr, ptr %196, align 8, !tbaa !24
  %198 = getelementptr inbounds nuw %struct.SwsSlice, ptr %197, i32 0, i32 6
  %199 = getelementptr inbounds [4 x %struct.SwsPlane], ptr %198, i64 0, i64 2
  %200 = getelementptr inbounds nuw %struct.SwsPlane, ptr %199, i32 0, i32 3
  %201 = load ptr, ptr %200, align 8, !tbaa !42
  %202 = load i32, ptr %14, align 4, !tbaa !26
  %203 = sext i32 %202 to i64
  %204 = getelementptr inbounds ptr, ptr %201, i64 %203
  %205 = load ptr, ptr %204, align 8, !tbaa !43
  store ptr %205, ptr %17, align 8, !tbaa !43
  %206 = load ptr, ptr %5, align 8, !tbaa !33
  %207 = getelementptr inbounds nuw %struct.SwsInternal, ptr %206, i32 0, i32 136
  %208 = load ptr, ptr %207, align 8, !tbaa !79
  %209 = icmp ne ptr %208, null
  br i1 %209, label %210, label %227

210:                                              ; preds = %128
  %211 = load ptr, ptr %5, align 8, !tbaa !33
  %212 = getelementptr inbounds nuw %struct.SwsInternal, ptr %211, i32 0, i32 136
  %213 = load ptr, ptr %212, align 8, !tbaa !79
  %214 = load ptr, ptr %16, align 8, !tbaa !43
  %215 = load ptr, ptr %17, align 8, !tbaa !43
  %216 = getelementptr inbounds [4 x ptr], ptr %15, i64 0, i64 0
  %217 = load ptr, ptr %216, align 16, !tbaa !43
  %218 = getelementptr inbounds [4 x ptr], ptr %15, i64 0, i64 1
  %219 = load ptr, ptr %218, align 8, !tbaa !43
  %220 = getelementptr inbounds [4 x ptr], ptr %15, i64 0, i64 2
  %221 = load ptr, ptr %220, align 16, !tbaa !43
  %222 = load i32, ptr %9, align 4, !tbaa !26
  %223 = load ptr, ptr %11, align 8, !tbaa !11
  %224 = load ptr, ptr %5, align 8, !tbaa !33
  %225 = getelementptr inbounds nuw %struct.SwsInternal, ptr %224, i32 0, i32 133
  %226 = load ptr, ptr %225, align 16, !tbaa !57
  call void %213(ptr noundef %214, ptr noundef %215, ptr noundef %217, ptr noundef %219, ptr noundef %221, i32 noundef %222, ptr noundef %223, ptr noundef %226)
  br label %247

227:                                              ; preds = %128
  %228 = load ptr, ptr %5, align 8, !tbaa !33
  %229 = getelementptr inbounds nuw %struct.SwsInternal, ptr %228, i32 0, i32 139
  %230 = load ptr, ptr %229, align 16, !tbaa !80
  %231 = icmp ne ptr %230, null
  br i1 %231, label %232, label %246

232:                                              ; preds = %227
  %233 = load ptr, ptr %5, align 8, !tbaa !33
  %234 = getelementptr inbounds nuw %struct.SwsInternal, ptr %233, i32 0, i32 139
  %235 = load ptr, ptr %234, align 16, !tbaa !80
  %236 = load ptr, ptr %16, align 8, !tbaa !43
  %237 = load ptr, ptr %17, align 8, !tbaa !43
  %238 = getelementptr inbounds [4 x ptr], ptr %15, i64 0, i64 0
  %239 = load i32, ptr %9, align 4, !tbaa !26
  %240 = load ptr, ptr %5, align 8, !tbaa !33
  %241 = getelementptr inbounds nuw %struct.SwsInternal, ptr %240, i32 0, i32 76
  %242 = getelementptr inbounds [176 x i32], ptr %241, i64 0, i64 0
  %243 = load ptr, ptr %5, align 8, !tbaa !33
  %244 = getelementptr inbounds nuw %struct.SwsInternal, ptr %243, i32 0, i32 133
  %245 = load ptr, ptr %244, align 16, !tbaa !57
  call void %235(ptr noundef %236, ptr noundef %237, ptr noundef %238, i32 noundef %239, ptr noundef %242, ptr noundef %245)
  br label %246

246:                                              ; preds = %232, %227
  br label %247

247:                                              ; preds = %246, %210
  call void @llvm.lifetime.end.p0(i64 8, ptr %17) #6
  call void @llvm.lifetime.end.p0(i64 8, ptr %16) #6
  call void @llvm.lifetime.end.p0(i64 32, ptr %15) #6
  br label %248

248:                                              ; preds = %247
  %249 = load i32, ptr %14, align 4, !tbaa !26
  %250 = add nsw i32 %249, 1
  store i32 %250, ptr %14, align 4, !tbaa !26
  br label %124, !llvm.loop !81

251:                                              ; preds = %124
  %252 = load i32, ptr %8, align 4, !tbaa !26
  call void @llvm.lifetime.end.p0(i64 4, ptr %14) #6
  call void @llvm.lifetime.end.p0(i64 4, ptr %13) #6
  call void @llvm.lifetime.end.p0(i64 4, ptr %12) #6
  call void @llvm.lifetime.end.p0(i64 8, ptr %11) #6
  call void @llvm.lifetime.end.p0(i64 8, ptr %10) #6
  call void @llvm.lifetime.end.p0(i64 4, ptr %9) #6
  ret i32 %252
}