; Function Attrs: nounwind uwtable
define internal noundef i32 @chr_convert(ptr noundef %0, ptr noundef readonly captures(none) %1, i32 noundef %2, i32 noundef returned %3) #0 {
  %5 = alloca [4 x ptr], align 16
  %6 = load ptr, ptr %1, align 8, !tbaa !21
  %7 = load i32, ptr %6, align 8, !tbaa !24
  %8 = getelementptr inbounds nuw i8, ptr %6, i64 4
  %9 = load i32, ptr %8, align 4, !tbaa !64
  %10 = sub nsw i32 0, %7
  %11 = ashr i32 %10, %9
  %12 = sub nsw i32 0, %11
  %13 = getelementptr inbounds nuw i8, ptr %1, i64 24
  %14 = load ptr, ptr %13, align 8, !tbaa !10
  %15 = load ptr, ptr %14, align 8, !tbaa !4
  %16 = getelementptr inbounds nuw i8, ptr %6, i64 28
  %17 = load i32, ptr %16, align 4, !tbaa !25
  %18 = getelementptr inbounds nuw i8, ptr %6, i64 8
  %19 = load i32, ptr %18, align 8, !tbaa !30
  %20 = getelementptr inbounds nuw i8, ptr %6, i64 60
  %21 = load i32, ptr %20, align 4, !tbaa !25
  %22 = getelementptr inbounds nuw i8, ptr %1, i64 8
  %23 = load ptr, ptr %22, align 8, !tbaa !22
  %24 = getelementptr inbounds nuw i8, ptr %23, i64 60
  store i32 %2, ptr %24, align 4, !tbaa !25
  %25 = getelementptr inbounds nuw i8, ptr %23, i64 64
  store i32 %3, ptr %25, align 8, !tbaa !29
  %26 = getelementptr inbounds nuw i8, ptr %23, i64 92
  store i32 %2, ptr %26, align 4, !tbaa !25
  %27 = getelementptr inbounds nuw i8, ptr %23, i64 96
  store i32 %3, ptr %27, align 8, !tbaa !29
  %28 = icmp sgt i32 %3, 0
  br i1 %28, label %.lr.ph, label %._crit_edge

.lr.ph:                                           ; preds = %4
  %29 = sub i32 %2, %21
  %30 = ashr i32 %17, %19
  %31 = sub nsw i32 %2, %30
  %32 = shl i32 %31, %19
  %33 = getelementptr inbounds nuw i8, ptr %5, i64 8
  %34 = getelementptr inbounds nuw i8, ptr %5, i64 16
  %35 = getelementptr inbounds nuw i8, ptr %5, i64 24
  %36 = getelementptr inbounds nuw i8, ptr %0, i64 53048
  %37 = getelementptr inbounds nuw i8, ptr %0, i64 53024
  %38 = getelementptr inbounds nuw i8, ptr %0, i64 53072
  %39 = getelementptr inbounds nuw i8, ptr %0, i64 39552
  %40 = sext i32 %32 to i64
  %41 = sext i32 %29 to i64
  %wide.trip.count = zext nneg i32 %3 to i64
  br label %42

42:                                               ; preds = %.lr.ph, %78
  %indvars.iv = phi i64 [ 0, %.lr.ph ], [ %indvars.iv.next, %78 ]
  call void @llvm.lifetime.start.p0(i64 32, ptr nonnull %5) #6
  %43 = load ptr, ptr %1, align 8, !tbaa !21
  %44 = getelementptr inbounds nuw i8, ptr %43, i64 40
  %45 = load ptr, ptr %44, align 8, !tbaa !31
  %46 = add nsw i64 %indvars.iv, %40
  %47 = getelementptr inbounds ptr, ptr %45, i64 %46
  %48 = load ptr, ptr %47, align 8, !tbaa !32
  store ptr %48, ptr %5, align 16, !tbaa !32
  %49 = getelementptr inbounds nuw i8, ptr %43, i64 72
  %50 = load ptr, ptr %49, align 8, !tbaa !31
  %51 = add nsw i64 %indvars.iv, %41
  %52 = getelementptr inbounds ptr, ptr %50, i64 %51
  %53 = load ptr, ptr %52, align 8, !tbaa !32
  store ptr %53, ptr %33, align 8, !tbaa !32
  %54 = getelementptr inbounds nuw i8, ptr %43, i64 104
  %55 = load ptr, ptr %54, align 8, !tbaa !31
  %56 = getelementptr inbounds ptr, ptr %55, i64 %51
  %57 = load ptr, ptr %56, align 8, !tbaa !32
  store ptr %57, ptr %34, align 16, !tbaa !32
  %58 = getelementptr inbounds nuw i8, ptr %43, i64 136
  %59 = load ptr, ptr %58, align 8, !tbaa !31
  %60 = getelementptr inbounds ptr, ptr %59, i64 %46
  %61 = load ptr, ptr %60, align 8, !tbaa !32
  store ptr %61, ptr %35, align 8, !tbaa !32
  %62 = load ptr, ptr %22, align 8, !tbaa !22
  %63 = getelementptr inbounds nuw i8, ptr %62, i64 72
  %64 = load ptr, ptr %63, align 8, !tbaa !31
  %65 = getelementptr inbounds nuw ptr, ptr %64, i64 %indvars.iv
  %66 = load ptr, ptr %65, align 8, !tbaa !32
  %67 = getelementptr inbounds nuw i8, ptr %62, i64 104
  %68 = load ptr, ptr %67, align 8, !tbaa !31
  %69 = getelementptr inbounds nuw ptr, ptr %68, i64 %indvars.iv
  %70 = load ptr, ptr %69, align 8, !tbaa !32
  %71 = load ptr, ptr %36, align 8, !tbaa !65
  %.not = icmp eq ptr %71, null
  br i1 %.not, label %74, label %72

72:                                               ; preds = %42
  %73 = load ptr, ptr %37, align 16, !tbaa !47
  call void %71(ptr noundef %66, ptr noundef %70, ptr noundef %48, ptr noundef %53, ptr noundef %57, i32 noundef %12, ptr noundef %15, ptr noundef %73) #6
  br label %78

74:                                               ; preds = %42
  %75 = load ptr, ptr %38, align 16, !tbaa !66
  %.not58 = icmp eq ptr %75, null
  br i1 %.not58, label %78, label %76

76:                                               ; preds = %74
  %77 = load ptr, ptr %37, align 16, !tbaa !47
  call void %75(ptr noundef %66, ptr noundef %70, ptr noundef nonnull %5, i32 noundef %12, ptr noundef nonnull %39, ptr noundef %77) #6
  br label %78

78:                                               ; preds = %74, %76, %72
  call void @llvm.lifetime.end.p0(i64 32, ptr nonnull %5) #6
  %indvars.iv.next = add nuw nsw i64 %indvars.iv, 1
  %exitcond.not = icmp eq i64 %indvars.iv.next, %wide.trip.count
  br i1 %exitcond.not, label %._crit_edge, label %42, !llvm.loop !67

._crit_edge:                                      ; preds = %78, %4
  ret i32 %3
}